target datalayout = "e-m:e-p270:32:32-p271:32:32-p272:64:64-i64:64-i128:128-f80:128-n8:16:32:64-S128"
target triple = "x86_64-unknown-linux-gnu"

%"struct.facebook::velox::Timestamp" = type { i64, i64 }
%"class.std::basic_string_view" = type { i64, ptr }
%"class.std::__cxx11::basic_string" = type { %"struct.std::__cxx11::basic_string<char>::_Alloc_hider", i64, %union.anon }
%"struct.std::__cxx11::basic_string<char>::_Alloc_hider" = type { ptr }
%union.anon = type { i64, [8 x i8] }

; Function Attrs: mustprogress nounwind uwtable
define internal noundef i64 @_ZN8facebook5velox12_GLOBAL__N_126getPrestoTZOffsetInSecondsEs(i16 noundef signext %tzID) #2 {
entry:
  %tzID.addr = alloca i16, align 2
  store i16 %tzID, ptr %tzID.addr, align 2
  %0 = load i16, ptr %tzID.addr, align 2
  %conv = sext i16 %0 to i32
  %cmp = icmp sle i32 %conv, 840
  br i1 %cmp, label %cond.true, label %cond.false

cond.true:                                        ; preds = %entry
  %1 = load i16, ptr %tzID.addr, align 2
  %conv1 = sext i16 %1 to i32
  %sub = sub nsw i32 %conv1, 841
  br label %cond.end

cond.false:                                       ; preds = %entry
  %2 = load i16, ptr %tzID.addr, align 2
  %conv2 = sext i16 %2 to i32
  %sub3 = sub nsw i32 %conv2, 840
  br label %cond.end

cond.end:                                         ; preds = %cond.false, %cond.true
  %cond = phi i32 [ %sub, %cond.true ], [ %sub3, %cond.false ]
  %mul = mul nsw i32 %cond, 60
  %conv4 = sext i32 %mul to i64
  ret i64 %conv4
}

; Function Attrs: mustprogress uwtable
define void @_ZN8facebook5velox9Timestamp5toGMTEs(ptr noundef nonnull align 8 dereferenceable(16) %this, i16 noundef signext %tzID) #0 align 2 personality ptr @__gxx_personality_v0 {
entry:
  %this.addr = alloca ptr, align 8
  %tzID.addr = alloca i16, align 2
  %agg.tmp = alloca %"class.std::basic_string_view", align 8
  %ref.tmp = alloca %"class.std::__cxx11::basic_string", align 8
  %exn.slot = alloca ptr, align 8
  %ehselector.slot = alloca i32, align 4
  store ptr %this, ptr %this.addr, align 8
  store i16 %tzID, ptr %tzID.addr, align 2
  %this1 = load ptr, ptr %this.addr, align 8
  %0 = load i16, ptr %tzID.addr, align 2
  %conv = sext i16 %0 to i32
  %cmp = icmp eq i32 %conv, 0
  br i1 %cmp, label %if.then, label %if.else

if.then:                                          ; preds = %entry
  br label %if.end10

if.else:                                          ; preds = %entry
  %1 = load i16, ptr %tzID.addr, align 2
  %conv2 = sext i16 %1 to i32
  %cmp3 = icmp sle i32 %conv2, 1680
  br i1 %cmp3, label %if.then4, label %if.else5

if.then4:                                         ; preds = %if.else
  %2 = load i16, ptr %tzID.addr, align 2
  %call = call noundef i64 @_ZN8facebook5velox12_GLOBAL__N_126getPrestoTZOffsetInSecondsEs(i16 noundef signext %2)
  %seconds_ = getelementptr inbounds %"struct.facebook::velox::Timestamp", ptr %this1, i32 0, i32 0
  %3 = load i64, ptr %seconds_, align 8
  %sub = sub nsw i64 %3, %call
  store i64 %sub, ptr %seconds_, align 8
  br label %if.end

if.else5:                                         ; preds = %if.else
  %4 = load i16, ptr %tzID.addr, align 2
  %conv6 = sext i16 %4 to i64
  call void @_ZN8facebook5velox4util15getTimeZoneNameB5cxx11El(ptr sret(%"class.std::__cxx11::basic_string") align 8 %ref.tmp, i64 noundef %conv6)
  %call7 = call { i64, ptr } @_ZNKSt7__cxx1112basic_stringIcSt11char_traitsIcESaIcEEcvSt17basic_string_viewIcS2_EEv(ptr noundef nonnull align 8 dereferenceable(32) %ref.tmp) #10
  %5 = getelementptr inbounds { i64, ptr }, ptr %agg.tmp, i32 0, i32 0
  %6 = extractvalue { i64, ptr } %call7, 0
  store i64 %6, ptr %5, align 8
  %7 = getelementptr inbounds { i64, ptr }, ptr %agg.tmp, i32 0, i32 1
  %8 = extractvalue { i64, ptr } %call7, 1
  store ptr %8, ptr %7, align 8
  %9 = getelementptr inbounds { i64, ptr }, ptr %agg.tmp, i32 0, i32 0
  %10 = load i64, ptr %9, align 8
  %11 = getelementptr inbounds { i64, ptr }, ptr %agg.tmp, i32 0, i32 1
  %12 = load ptr, ptr %11, align 8
  %call8 = invoke noundef ptr @_ZN4date11locate_zoneESt17basic_string_viewIcSt11char_traitsIcEE(i64 %10, ptr %12)
          to label %invoke.cont unwind label %lpad

invoke.cont:                                      ; preds = %if.else5
  invoke void @_ZN8facebook5velox9Timestamp5toGMTERKN4date9time_zoneE(ptr noundef nonnull align 8 dereferenceable(16) %this1, ptr noundef nonnull align 8 dereferenceable(64) %call8)
          to label %invoke.cont9 unwind label %lpad

invoke.cont9:                                     ; preds = %invoke.cont
  call void @_ZNSt7__cxx1112basic_stringIcSt11char_traitsIcESaIcEED1Ev(ptr noundef nonnull align 8 dereferenceable(32) %ref.tmp) #10
  br label %if.end

lpad:                                             ; preds = %invoke.cont, %if.else5
  %13 = landingpad { ptr, i32 }
          cleanup
  %14 = extractvalue { ptr, i32 } %13, 0
  store ptr %14, ptr %exn.slot, align 8
  %15 = extractvalue { ptr, i32 } %13, 1
  store i32 %15, ptr %ehselector.slot, align 4
  call void @_ZNSt7__cxx1112basic_stringIcSt11char_traitsIcESaIcEED1Ev(ptr noundef nonnull align 8 dereferenceable(32) %ref.tmp) #10
  br label %eh.resume

if.end:                                           ; preds = %invoke.cont9, %if.then4
  br label %if.end10

if.end10:                                         ; preds = %if.end, %if.then
  ret void

eh.resume:                                        ; preds = %lpad
  %exn = load ptr, ptr %exn.slot, align 8
  %sel = load i32, ptr %ehselector.slot, align 4
  %lpad.val = insertvalue { ptr, i32 } poison, ptr %exn, 0
  %lpad.val11 = insertvalue { ptr, i32 } %lpad.val, i32 %sel, 1
  resume { ptr, i32 } %lpad.val11
}