; Function Attrs: mustprogress uwtable
define void @_ZN8facebook5velox9Timestamp5toGMTEs(ptr nocapture noundef nonnull align 8 dereferenceable(16) %this, i16 noundef signext %tzID) local_unnamed_addr #2 align 2 personality ptr @__gxx_personality_v0 {
entry:
  %ref.tmp = alloca %"class.std::__cxx11::basic_string", align 8
  %cmp = icmp eq i16 %tzID, 0
  br i1 %cmp, label %if.end10, label %if.else

if.else:                                          ; preds = %entry
  %cmp3 = icmp slt i16 %tzID, 1681
  br i1 %cmp3, label %if.then4, label %if.else5

if.then4:                                         ; preds = %if.else
  %conv.i = sext i16 %tzID to i64
  %cmp.i = icmp slt i16 %tzID, 841
  %cond.v.i = select i1 %cmp.i, i64 -841, i64 -840
  %cond.i = add nsw i64 %cond.v.i, %conv.i
  %mul.i.neg = mul nsw i64 %cond.i, -60
  %0 = load i64, ptr %this, align 8
  %sub = add i64 %0, %mul.i.neg
  store i64 %sub, ptr %this, align 8
  br label %if.end10

if.else5:                                         ; preds = %if.else
  %conv6 = zext nneg i16 %tzID to i64
  call void @_ZN8facebook5velox4util15getTimeZoneNameB5cxx11El(ptr nonnull sret(%"class.std::__cxx11::basic_string") align 8 %ref.tmp, i64 noundef %conv6)
  %call7 = call { i64, ptr } @_ZNKSt7__cxx1112basic_stringIcSt11char_traitsIcESaIcEEcvSt17basic_string_viewIcS2_EEv(ptr noundef nonnull align 8 dereferenceable(32) %ref.tmp) #14
  %1 = extractvalue { i64, ptr } %call7, 0
  %2 = extractvalue { i64, ptr } %call7, 1
  %call8 = invoke noundef ptr @_ZN4date11locate_zoneESt17basic_string_viewIcSt11char_traitsIcEE(i64 %1, ptr %2)
          to label %invoke.cont unwind label %lpad

invoke.cont:                                      ; preds = %if.else5
  invoke void @_ZN8facebook5velox9Timestamp5toGMTERKN4date9time_zoneE(ptr noundef nonnull align 8 dereferenceable(16) %this, ptr noundef nonnull align 8 dereferenceable(64) %call8)
          to label %invoke.cont9 unwind label %lpad

invoke.cont9:                                     ; preds = %invoke.cont
  call void @_ZNSt7__cxx1112basic_stringIcSt11char_traitsIcESaIcEED1Ev(ptr noundef nonnull align 8 dereferenceable(32) %ref.tmp) #14
  br label %if.end10

lpad:                                             ; preds = %invoke.cont, %if.else5
  %3 = landingpad { ptr, i32 }
          cleanup
  call void @_ZNSt7__cxx1112basic_stringIcSt11char_traitsIcESaIcEED1Ev(ptr noundef nonnull align 8 dereferenceable(32) %ref.tmp) #14
  resume { ptr, i32 } %3

if.end10:                                         ; preds = %if.then4, %invoke.cont9, %entry
  ret void
}